target datalayout = "e-m:e-p270:32:32-p271:32:32-p272:64:64-i64:64-i128:128-f80:128-n8:16:32:64-S128"
target triple = "x86_64-pc-linux-gnu"

; Function Attrs: mustprogress uwtable
define void @_ZN7rocksdb20TrimHistoryScheduler5ClearEv(ptr noundef nonnull align 8 dereferenceable(152) %0) #5 align 2 {
  %2 = alloca ptr, align 8
  %3 = alloca ptr, align 8
  store ptr %0, ptr %2, align 8, !tbaa !48
  %4 = load ptr, ptr %2, align 8
  call void @llvm.lifetime.start.p0(i64 8, ptr %3) #4
  br label %5

5:                                                ; preds = %8, %1
  %6 = call noundef ptr @_ZN7rocksdb20TrimHistoryScheduler20TakeNextColumnFamilyEv(ptr noundef nonnull align 8 dereferenceable(152) %4)
  store ptr %6, ptr %3, align 8, !tbaa !50
  %7 = icmp ne ptr %6, null
  br i1 %7, label %8, label %11

8:                                                ; preds = %5
  %9 = load ptr, ptr %3, align 8, !tbaa !50
  %10 = call noundef zeroext i1 @_ZN7rocksdb16ColumnFamilyData17UnrefAndTryDeleteEv(ptr noundef nonnull align 8 dereferenceable(2712) %9)
  br label %5, !llvm.loop !80

11:                                               ; preds = %5
  call void @llvm.lifetime.end.p0(i64 8, ptr %3) #4
  ret void
}