; Function Attrs: mustprogress uwtable
define void @_ZN7rocksdb20TrimHistoryScheduler5ClearEv(ptr noundef nonnull align 8 dereferenceable(152) %0) local_unnamed_addr #4 align 2 {
  %2 = tail call noundef ptr @_ZN7rocksdb20TrimHistoryScheduler20TakeNextColumnFamilyEv(ptr noundef nonnull align 8 dereferenceable(152) %0)
  %.not2 = icmp eq ptr %2, null
  br i1 %.not2, label %._crit_edge, label %.lr.ph

.lr.ph:                                           ; preds = %1, %.lr.ph
  %3 = phi ptr [ %5, %.lr.ph ], [ %2, %1 ]
  %4 = tail call noundef zeroext i1 @_ZN7rocksdb16ColumnFamilyData17UnrefAndTryDeleteEv(ptr noundef nonnull align 8 dereferenceable(2712) %3)
  %5 = tail call noundef ptr @_ZN7rocksdb20TrimHistoryScheduler20TakeNextColumnFamilyEv(ptr noundef nonnull align 8 dereferenceable(152) %0)
  %.not = icmp eq ptr %5, null
  br i1 %.not, label %._crit_edge, label %.lr.ph, !llvm.loop !32

._crit_edge:                                      ; preds = %.lr.ph, %1
  ret void
}